; ModuleID = '50/1044.c'
source_filename = "50/1044.c"
target datalayout = "e-m:e-p270:32:32-p271:32:32-p272:64:64-i64:64-f80:128-n8:16:32:64-S128"
target triple = "x86_64-pc-linux-gnu"

@.str = private unnamed_addr constant [3 x i8] c"%d\00", align 1
@.str.1 = private unnamed_addr constant [4 x i8] c"%d\0A\00", align 1

; Function Attrs: noinline nounwind uwtable
define dso_local i32 @main() #0 {
  %1 = alloca i32, align 4
  %2 = alloca i32, align 4
  %3 = alloca i32, align 4
  %4 = alloca i32, align 4
  %5 = alloca [13 x i32], align 16
  store i32 0, i32* %1, align 4
  %6 = call i32 (i8*, ...) @__isoc99_scanf(i8* getelementptr inbounds ([3 x i8], [3 x i8]* @.str, i64 0, i64 0), i32* %2)
  %7 = getelementptr inbounds [13 x i32], [13 x i32]* %5, i64 0, i64 1
  store i32 13, i32* %7, align 4
  %8 = getelementptr inbounds [13 x i32], [13 x i32]* %5, i64 0, i64 2
  store i32 44, i32* %8, align 8
  %9 = getelementptr inbounds [13 x i32], [13 x i32]* %5, i64 0, i64 3
  store i32 72, i32* %9, align 4
  %10 = getelementptr inbounds [13 x i32], [13 x i32]* %5, i64 0, i64 4
  store i32 103, i32* %10, align 16
  %11 = getelementptr inbounds [13 x i32], [13 x i32]* %5, i64 0, i64 5
  store i32 133, i32* %11, align 4
  %12 = getelementptr inbounds [13 x i32], [13 x i32]* %5, i64 0, i64 6
  store i32 164, i32* %12, align 8
  %13 = getelementptr inbounds [13 x i32], [13 x i32]* %5, i64 0, i64 7
  store i32 194, i32* %13, align 4
  %14 = getelementptr inbounds [13 x i32], [13 x i32]* %5, i64 0, i64 8
  store i32 225, i32* %14, align 16
  %15 = getelementptr inbounds [13 x i32], [13 x i32]* %5, i64 0, i64 9
  store i32 256, i32* %15, align 4
  %16 = getelementptr inbounds [13 x i32], [13 x i32]* %5, i64 0, i64 10
  store i32 286, i32* %16, align 8
  %17 = getelementptr inbounds [13 x i32], [13 x i32]* %5, i64 0, i64 11
  store i32 317, i32* %17, align 4
  %18 = getelementptr inbounds [13 x i32], [13 x i32]* %5, i64 0, i64 12
  store i32 347, i32* %18, align 16
  store i32 1, i32* %4, align 4
  br label %19

19:                                               ; preds = %47, %0
  %20 = load i32, i32* %4, align 4
  %21 = icmp sle i32 %20, 12
  br i1 %21, label %22, label %50

22:                                               ; preds = %19
  %23 = load i32, i32* %4, align 4
  %24 = sext i32 %23 to i64
  %25 = getelementptr inbounds [13 x i32], [13 x i32]* %5, i64 0, i64 %24
  %26 = load i32, i32* %25, align 4
  %27 = srem i32 %26, 7
  store i32 %27, i32* %3, align 4
  %28 = load i32, i32* %3, align 4
  %29 = load i32, i32* %2, align 4
  %30 = add nsw i32 %28, %29
  %31 = sub nsw i32 %30, 1
  %32 = icmp eq i32 %31, 5
  br i1 %32, label %33, label %36

33:                                               ; preds = %22
  %34 = load i32, i32* %4, align 4
  %35 = call i32 (i8*, ...) @printf(i8* getelementptr inbounds ([4 x i8], [4 x i8]* @.str.1, i64 0, i64 0), i32 %34)
  br label %46

36:                                               ; preds = %22
  %37 = load i32, i32* %3, align 4
  %38 = load i32, i32* %2, align 4
  %39 = add nsw i32 %37, %38
  %40 = sub nsw i32 %39, 8
  %41 = icmp eq i32 %40, 5
  br i1 %41, label %42, label %45

42:                                               ; preds = %36
  %43 = load i32, i32* %4, align 4
  %44 = call i32 (i8*, ...) @printf(i8* getelementptr inbounds ([4 x i8], [4 x i8]* @.str.1, i64 0, i64 0), i32 %43)
  br label %45

45:                                               ; preds = %42, %36
  br label %46

46:                                               ; preds = %45, %33
  br label %47

47:                                               ; preds = %46
  %48 = load i32, i32* %4, align 4
  %49 = add nsw i32 %48, 1
  store i32 %49, i32* %4, align 4
  br label %19

50:                                               ; preds = %19
  ret i32 0
}

declare dso_local i32 @__isoc99_scanf(i8*, ...) #1

declare dso_local i32 @printf(i8*, ...) #1


!llvm.module.flags = !{!0}
!llvm.ident = !{!1}

!0 = !{i32 1, !"wchar_size", i32 4}
!1 = !{!"clang version 10.0.0-4ubuntu1 "}
